; Function Attrs: mustprogress uwtable
define void @_ZN5ZXing6Pdf41712BarcodeValue8setValueEi(ptr noundef nonnull align 8 dereferenceable(48) %0, i32 noundef %1) local_unnamed_addr #0 align 2 {
  %3 = alloca i32, align 4
  store i32 %1, ptr %3, align 4
  %4 = call noundef nonnull align 4 dereferenceable(4) ptr @_ZNSt3mapIiiSt4lessIiESaISt4pairIKiiEEEixERS3_(ptr noundef nonnull align 8 dereferenceable(48) %0, ptr noundef nonnull align 4 dereferenceable(4) %3)
  %5 = load i32, ptr %4, align 4
  %6 = add nsw i32 %5, 1
  store i32 %6, ptr %4, align 4
  ret void
}